; ModuleID = '16/146.c'
source_filename = "16/146.c"
target datalayout = "e-m:e-p270:32:32-p271:32:32-p272:64:64-i64:64-f80:128-n8:16:32:64-S128"
target triple = "x86_64-pc-linux-gnu"

@.str = private unnamed_addr constant [3 x i8] c"%d\00", align 1
@.str.1 = private unnamed_addr constant [5 x i8] c"%d%d\00", align 1
@.str.2 = private unnamed_addr constant [7 x i8] c"%d%d%d\00", align 1
@.str.3 = private unnamed_addr constant [9 x i8] c"%d%d%d%d\00", align 1

; Function Attrs: noinline nounwind uwtable
define dso_local i32 @main() #0 {
  %1 = alloca i32, align 4
  %2 = alloca i32, align 4
  %3 = alloca i32, align 4
  %4 = alloca i32, align 4
  %5 = alloca i32, align 4
  %6 = alloca i32, align 4
  store i32 0, i32* %1, align 4
  %7 = call i32 (i8*, ...) @__isoc99_scanf(i8* getelementptr inbounds ([3 x i8], [3 x i8]* @.str, i64 0, i64 0), i32* %2)
  %8 = load i32, i32* %2, align 4
  %9 = sdiv i32 %8, 10
  %10 = icmp eq i32 %9, 0
  br i1 %10, label %11, label %14

11:                                               ; preds = %0
  %12 = load i32, i32* %2, align 4
  %13 = call i32 (i8*, ...) @printf(i8* getelementptr inbounds ([3 x i8], [3 x i8]* @.str, i64 0, i64 0), i32 %12)
  br label %74

14:                                               ; preds = %0
  %15 = load i32, i32* %2, align 4
  %16 = sdiv i32 %15, 100
  %17 = icmp eq i32 %16, 0
  br i1 %17, label %18, label %26

18:                                               ; preds = %14
  %19 = load i32, i32* %2, align 4
  %20 = sdiv i32 %19, 10
  store i32 %20, i32* %3, align 4
  %21 = load i32, i32* %2, align 4
  %22 = srem i32 %21, 10
  store i32 %22, i32* %4, align 4
  %23 = load i32, i32* %4, align 4
  %24 = load i32, i32* %3, align 4
  %25 = call i32 (i8*, ...) @printf(i8* getelementptr inbounds ([5 x i8], [5 x i8]* @.str.1, i64 0, i64 0), i32 %23, i32 %24)
  br label %73

26:                                               ; preds = %14
  %27 = load i32, i32* %2, align 4
  %28 = sdiv i32 %27, 1000
  %29 = icmp eq i32 %28, 0
  br i1 %29, label %30, label %44

30:                                               ; preds = %26
  %31 = load i32, i32* %2, align 4
  %32 = sdiv i32 %31, 100
  store i32 %32, i32* %3, align 4
  %33 = load i32, i32* %2, align 4
  %34 = load i32, i32* %3, align 4
  %35 = mul nsw i32 %34, 100
  %36 = sub nsw i32 %33, %35
  %37 = sdiv i32 %36, 10
  store i32 %37, i32* %4, align 4
  %38 = load i32, i32* %2, align 4
  %39 = srem i32 %38, 10
  store i32 %39, i32* %5, align 4
  %40 = load i32, i32* %5, align 4
  %41 = load i32, i32* %4, align 4
  %42 = load i32, i32* %3, align 4
  %43 = call i32 (i8*, ...) @printf(i8* getelementptr inbounds ([7 x i8], [7 x i8]* @.str.2, i64 0, i64 0), i32 %40, i32 %41, i32 %42)
  br label %72

44:                                               ; preds = %26
  %45 = load i32, i32* %2, align 4
  %46 = sdiv i32 %45, 10000
  %47 = icmp eq i32 %46, 0
  br i1 %47, label %48, label %71

48:                                               ; preds = %44
  %49 = load i32, i32* %2, align 4
  %50 = sdiv i32 %49, 1000
  store i32 %50, i32* %3, align 4
  %51 = load i32, i32* %2, align 4
  %52 = load i32, i32* %3, align 4
  %53 = mul nsw i32 %52, 1000
  %54 = sub nsw i32 %51, %53
  %55 = sdiv i32 %54, 100
  store i32 %55, i32* %4, align 4
  %56 = load i32, i32* %2, align 4
  %57 = load i32, i32* %3, align 4
  %58 = mul nsw i32 %57, 1000
  %59 = sub nsw i32 %56, %58
  %60 = load i32, i32* %4, align 4
  %61 = mul nsw i32 %60, 100
  %62 = sub nsw i32 %59, %61
  %63 = sdiv i32 %62, 10
  store i32 %63, i32* %5, align 4
  %64 = load i32, i32* %2, align 4
  %65 = srem i32 %64, 10
  store i32 %65, i32* %6, align 4
  %66 = load i32, i32* %6, align 4
  %67 = load i32, i32* %5, align 4
  %68 = load i32, i32* %4, align 4
  %69 = load i32, i32* %3, align 4
  %70 = call i32 (i8*, ...) @printf(i8* getelementptr inbounds ([9 x i8], [9 x i8]* @.str.3, i64 0, i64 0), i32 %66, i32 %67, i32 %68, i32 %69)
  br label %71

71:                                               ; preds = %48, %44
  br label %72

72:                                               ; preds = %71, %30
  br label %73

73:                                               ; preds = %72, %18
  br label %74

74:                                               ; preds = %73, %11
  ret i32 0
}

declare dso_local i32 @__isoc99_scanf(i8*, ...) #1

declare dso_local i32 @printf(i8*, ...) #1


!llvm.module.flags = !{!0}
!llvm.ident = !{!1}

!0 = !{i32 1, !"wchar_size", i32 4}
!1 = !{!"clang version 10.0.0-4ubuntu1 "}
