; ModuleID = 'source-C-CXX/15/146.c'
source_filename = "source-C-CXX/15/146.c"
target datalayout = "e-m:e-p270:32:32-p271:32:32-p272:64:64-i64:64-f80:128-n8:16:32:64-S128"
target triple = "x86_64-pc-linux-gnu"

@.str = private unnamed_addr constant [3 x i8] c"%d\00", align 1
@.str.1 = private unnamed_addr constant [5 x i8] c"%d%d\00", align 1
@.str.2 = private unnamed_addr constant [7 x i8] c"%d%d%d\00", align 1
@.str.3 = private unnamed_addr constant [9 x i8] c"%d%d%d%d\00", align 1

; Function Attrs: nofree nounwind sspstrong uwtable
define dso_local i32 @main() local_unnamed_addr #0 {
  %1 = alloca i32, align 4
  %2 = bitcast i32* %1 to i8*
  call void @llvm.lifetime.start.p0i8(i64 4, i8* nonnull %2) #3
  %3 = call i32 (i8*, ...) @__isoc99_scanf(i8* getelementptr inbounds ([3 x i8], [3 x i8]* @.str, i64 0, i64 0), i32* nonnull %1)
  %4 = load i32, i32* %1, align 4, !tbaa !5
  %5 = sdiv i32 %4, 10
  %6 = add i32 %4, 9
  %7 = icmp ult i32 %6, 19
  br i1 %7, label %8, label %10

8:                                                ; preds = %0
  %9 = call i32 (i8*, ...) @printf(i8* nonnull dereferenceable(1) getelementptr inbounds ([3 x i8], [3 x i8]* @.str, i64 0, i64 0), i32 %4)
  br label %45

10:                                               ; preds = %0
  %11 = sdiv i32 %4, 100
  %12 = add i32 %4, 99
  %13 = icmp ult i32 %12, 199
  br i1 %13, label %14, label %19

14:                                               ; preds = %10
  %15 = trunc i32 %4 to i8
  %16 = srem i8 %15, 10
  %17 = sext i8 %16 to i32
  %18 = call i32 (i8*, ...) @printf(i8* nonnull dereferenceable(1) getelementptr inbounds ([5 x i8], [5 x i8]* @.str.1, i64 0, i64 0), i32 %17, i32 %5)
  br label %45

19:                                               ; preds = %10
  %20 = sdiv i32 %4, 1000
  %21 = add i32 %4, 999
  %22 = icmp ult i32 %21, 1999
  br i1 %22, label %23, label %31

23:                                               ; preds = %19
  %24 = mul nsw i32 %11, -100
  %25 = add i32 %24, %4
  %26 = sdiv i32 %25, 10
  %27 = trunc i32 %4 to i16
  %28 = srem i16 %27, 10
  %29 = sext i16 %28 to i32
  %30 = call i32 (i8*, ...) @printf(i8* nonnull dereferenceable(1) getelementptr inbounds ([7 x i8], [7 x i8]* @.str.2, i64 0, i64 0), i32 %29, i32 %26, i32 %11)
  br label %45

31:                                               ; preds = %19
  %32 = add i32 %4, 9999
  %33 = icmp ult i32 %32, 19999
  br i1 %33, label %34, label %45

34:                                               ; preds = %31
  %35 = mul nsw i32 %20, -1000
  %36 = add i32 %35, %4
  %37 = sdiv i32 %36, 100
  %38 = mul nsw i32 %37, -100
  %39 = add i32 %38, %36
  %40 = sdiv i32 %39, 10
  %41 = trunc i32 %4 to i16
  %42 = srem i16 %41, 10
  %43 = sext i16 %42 to i32
  %44 = call i32 (i8*, ...) @printf(i8* nonnull dereferenceable(1) getelementptr inbounds ([9 x i8], [9 x i8]* @.str.3, i64 0, i64 0), i32 %43, i32 %40, i32 %37, i32 %20)
  br label %45

45:                                               ; preds = %14, %31, %34, %23, %8
  call void @llvm.lifetime.end.p0i8(i64 4, i8* nonnull %2) #3
  ret i32 0
}

; Function Attrs: argmemonly mustprogress nofree nosync nounwind willreturn
declare void @llvm.lifetime.start.p0i8(i64 immarg, i8* nocapture) #1

; Function Attrs: nofree nounwind
declare noundef i32 @__isoc99_scanf(i8* nocapture noundef readonly, ...) local_unnamed_addr #2

; Function Attrs: nofree nounwind
declare noundef i32 @printf(i8* nocapture noundef readonly, ...) local_unnamed_addr #2

; Function Attrs: argmemonly mustprogress nofree nosync nounwind willreturn
declare void @llvm.lifetime.end.p0i8(i64 immarg, i8* nocapture) #1


!llvm.module.flags = !{!0, !1, !2, !3}
!llvm.ident = !{!4}

!0 = !{i32 1, !"wchar_size", i32 4}
!1 = !{i32 7, !"PIC Level", i32 2}
!2 = !{i32 7, !"PIE Level", i32 2}
!3 = !{i32 7, !"uwtable", i32 1}
!4 = !{!"clang version 13.0.0"}
!5 = !{!6, !6, i64 0}
!6 = !{!"int", !7, i64 0}
!7 = !{!"omnipotent char", !8, i64 0}
!8 = !{!"Simple C/C++ TBAA"}
